target datalayout = "e-m:e-p270:32:32-p271:32:32-p272:64:64-i64:64-i128:128-f80:128-n8:16:32:64-S128"
target triple = "x86_64-pc-linux-gnu"

%struct.dtlink_s_ = type { ptr, %union.anon.0 }
%union.anon.0 = type { ptr }
%struct.namev_t = type { %struct.dtlink_s_, ptr, ptr }

; Function Attrs: nounwind uwtable
define internal ptr @make_nitem(ptr noundef %0, ptr noundef %1) #0 {
  %3 = alloca ptr, align 8
  %4 = alloca ptr, align 8
  %5 = alloca ptr, align 8
  %6 = alloca ptr, align 8
  %7 = alloca ptr, align 8
  %8 = alloca i32, align 4
  store ptr %0, ptr %4, align 8, !tbaa !28
  store ptr %1, ptr %5, align 8, !tbaa !50
  call void @llvm.lifetime.start.p0(i64 8, ptr %6) #14
  %9 = load ptr, ptr %4, align 8, !tbaa !28
  store ptr %9, ptr %6, align 8, !tbaa !28
  call void @llvm.lifetime.start.p0(i64 8, ptr %7) #14
  %10 = call noalias ptr @malloc(i64 noundef 32) #18
  store ptr %10, ptr %7, align 8, !tbaa !28
  %11 = load ptr, ptr %7, align 8, !tbaa !28
  %12 = icmp eq ptr %11, null
  br i1 %12, label %13, label %14

13:                                               ; preds = %2
  store ptr null, ptr %3, align 8
  store i32 1, ptr %8, align 4
  br label %23

14:                                               ; preds = %2
  %15 = load ptr, ptr %6, align 8, !tbaa !28
  %16 = getelementptr inbounds nuw %struct.namev_t, ptr %15, i32 0, i32 1
  %17 = load ptr, ptr %16, align 8, !tbaa !52
  %18 = load ptr, ptr %7, align 8, !tbaa !28
  %19 = getelementptr inbounds nuw %struct.namev_t, ptr %18, i32 0, i32 1
  store ptr %17, ptr %19, align 8, !tbaa !52
  %20 = load ptr, ptr %7, align 8, !tbaa !28
  %21 = getelementptr inbounds nuw %struct.namev_t, ptr %20, i32 0, i32 2
  store ptr null, ptr %21, align 8, !tbaa !54
  %22 = load ptr, ptr %7, align 8, !tbaa !28
  store ptr %22, ptr %3, align 8
  store i32 1, ptr %8, align 4
  br label %23

23:                                               ; preds = %14, %13
  call void @llvm.lifetime.end.p0(i64 8, ptr %7) #14
  call void @llvm.lifetime.end.p0(i64 8, ptr %6) #14
  %24 = load ptr, ptr %3, align 8
  ret ptr %24
}