; Function Attrs: mustprogress nofree nounwind willreturn memory(write, argmem: read, inaccessiblemem: readwrite) uwtable
define internal noalias noundef ptr @make_nitem(ptr noundef readonly captures(none) %0, ptr readnone captures(none) %1) #6 {
  %3 = tail call noalias dereferenceable_or_null(32) ptr @malloc(i64 noundef 32) #31
  %4 = icmp eq ptr %3, null
  br i1 %4, label %10, label %5

5:                                                ; preds = %2
  %6 = getelementptr inbounds nuw i8, ptr %0, i64 16
  %7 = load ptr, ptr %6, align 8, !tbaa !60
  %8 = getelementptr inbounds nuw i8, ptr %3, i64 16
  store ptr %7, ptr %8, align 8, !tbaa !60
  %9 = getelementptr inbounds nuw i8, ptr %3, i64 24
  store ptr null, ptr %9, align 8, !tbaa !42
  br label %10

10:                                               ; preds = %2, %5
  ret ptr %3
}